; Function Attrs: uwtable
define range(i32 -4, 1) i32 @faiss_IndexLSH_new(ptr noundef writeonly captures(none) %0, i64 noundef %1, i32 noundef %2) local_unnamed_addr #7 personality ptr @__gxx_personality_v0 {
  %4 = alloca %"class.std::__exception_ptr::exception_ptr", align 8
  %5 = alloca %"class.std::__exception_ptr::exception_ptr", align 8
  %6 = alloca %"class.std::__exception_ptr::exception_ptr", align 8
  %7 = alloca %"class.std::__exception_ptr::exception_ptr", align 8
  %8 = alloca %"class.std::runtime_error", align 8
  %9 = alloca %"class.std::__exception_ptr::exception_ptr", align 8
  %10 = alloca %"class.std::exception", align 8
  %11 = alloca %"class.std::__exception_ptr::exception_ptr", align 8
  %12 = alloca %"class.faiss::FaissException", align 8
  %13 = invoke noalias noundef nonnull dereferenceable(184) ptr @_Znwm(i64 noundef 184) #21
          to label %14 unwind label %16

14:                                               ; preds = %3
  invoke void @_ZN5faiss8IndexLSHC1Elibb(ptr noundef nonnull align 8 dereferenceable(184) %13, i64 noundef %1, i32 noundef %2, i1 noundef zeroext true, i1 noundef zeroext false)
          to label %15 unwind label %18

15:                                               ; preds = %14
  store ptr %13, ptr %0, align 8, !tbaa !35
  br label %52

16:                                               ; preds = %3
  %17 = landingpad { ptr, i32 }
          catch ptr @_ZTIN5faiss14FaissExceptionE
          catch ptr @_ZTISt9exception
          catch ptr null
  br label %20

18:                                               ; preds = %14
  %19 = landingpad { ptr, i32 }
          catch ptr @_ZTIN5faiss14FaissExceptionE
          catch ptr @_ZTISt9exception
          catch ptr null
  tail call void @_ZdlPvm(ptr noundef nonnull %13, i64 noundef 184) #22
  br label %20

20:                                               ; preds = %18, %16
  %.pn = phi { ptr, i32 } [ %19, %18 ], [ %17, %16 ]
  %.011 = extractvalue { ptr, i32 } %.pn, 0
  %.012 = extractvalue { ptr, i32 } %.pn, 1
  %21 = tail call i32 @llvm.eh.typeid.for.p0(ptr nonnull @_ZTIN5faiss14FaissExceptionE) #20
  %22 = icmp eq i32 %.012, %21
  br i1 %22, label %23, label %31

23:                                               ; preds = %20
  %24 = tail call ptr @__cxa_begin_catch(ptr %.011) #20
  call void @llvm.lifetime.start.p0(i64 8, ptr nonnull %11) #20
  invoke void @_ZN5faiss14FaissExceptionC2ERKS0_(ptr noundef nonnull align 8 dereferenceable(40) %12, ptr noundef nonnull align 8 dereferenceable(40) %24)
          to label %25 unwind label %50

25:                                               ; preds = %23
  call void @_ZSt18make_exception_ptrIN5faiss14FaissExceptionEENSt15__exception_ptr13exception_ptrET_(ptr dead_on_unwind nonnull writable sret(%"class.std::__exception_ptr::exception_ptr") align 8 %11, ptr noundef nonnull %12) #20
  %.not.i = icmp eq ptr @_ZTH20faiss_last_exception, null
  br i1 %.not.i, label %_ZTW20faiss_last_exception.exit, label %26

26:                                               ; preds = %25
  call void @_ZTH20faiss_last_exception()
  br label %_ZTW20faiss_last_exception.exit

_ZTW20faiss_last_exception.exit:                  ; preds = %25, %26
  %27 = call noundef align 8 ptr @llvm.threadlocal.address.p0(ptr align 8 @faiss_last_exception)
  call void @llvm.lifetime.start.p0(i64 8, ptr nonnull %6) #20
  %28 = load ptr, ptr %11, align 8, !tbaa !37
  store ptr null, ptr %11, align 8, !tbaa !37
  %29 = load ptr, ptr %27, align 8, !tbaa !37
  store ptr %29, ptr %6, align 8, !tbaa !37
  store ptr %28, ptr %27, align 8, !tbaa !37
  %.not.i.i = icmp eq ptr %29, null
  br i1 %.not.i.i, label %_ZNSt15__exception_ptr13exception_ptraSEOS0_.exit.thread, label %_ZNSt15__exception_ptr13exception_ptraSEOS0_.exit

_ZNSt15__exception_ptr13exception_ptraSEOS0_.exit.thread: ; preds = %_ZTW20faiss_last_exception.exit
  call void @llvm.lifetime.end.p0(i64 8, ptr nonnull %6) #20
  br label %_ZNSt15__exception_ptr13exception_ptrD2Ev.exit

_ZNSt15__exception_ptr13exception_ptraSEOS0_.exit: ; preds = %_ZTW20faiss_last_exception.exit
  call void @_ZNSt15__exception_ptr13exception_ptr10_M_releaseEv(ptr noundef nonnull align 8 dereferenceable(8) %6) #20
  %.pr = load ptr, ptr %11, align 8, !tbaa !37
  call void @llvm.lifetime.end.p0(i64 8, ptr nonnull %6) #20
  %.not.i17 = icmp eq ptr %.pr, null
  br i1 %.not.i17, label %_ZNSt15__exception_ptr13exception_ptrD2Ev.exit, label %30

30:                                               ; preds = %_ZNSt15__exception_ptr13exception_ptraSEOS0_.exit
  call void @_ZNSt15__exception_ptr13exception_ptr10_M_releaseEv(ptr noundef nonnull align 8 dereferenceable(8) %11) #20
  br label %_ZNSt15__exception_ptr13exception_ptrD2Ev.exit

_ZNSt15__exception_ptr13exception_ptrD2Ev.exit:   ; preds = %_ZNSt15__exception_ptr13exception_ptraSEOS0_.exit.thread, %_ZNSt15__exception_ptr13exception_ptraSEOS0_.exit, %30
  call void @_ZN5faiss14FaissExceptionD2Ev(ptr noundef nonnull align 8 dereferenceable(40) %12) #20
  call void @llvm.lifetime.end.p0(i64 8, ptr nonnull %11) #20
  call void @__cxa_end_catch()
  br label %52

31:                                               ; preds = %20
  %32 = tail call i32 @llvm.eh.typeid.for.p0(ptr nonnull @_ZTISt9exception) #20
  %33 = icmp eq i32 %.012, %32
  %34 = tail call ptr @__cxa_begin_catch(ptr %.011) #20
  br i1 %33, label %35, label %41

35:                                               ; preds = %31
  call void @llvm.lifetime.start.p0(i64 8, ptr nonnull %9) #20
  store ptr getelementptr inbounds nuw inrange(-16, 24) (i8, ptr @_ZTVSt9exception, i64 16), ptr %10, align 8, !tbaa !3
  call void @_ZSt18make_exception_ptrISt9exceptionENSt15__exception_ptr13exception_ptrET_(ptr dead_on_unwind nonnull writable sret(%"class.std::__exception_ptr::exception_ptr") align 8 %9, ptr noundef nonnull %10) #20
  %.not.i18 = icmp eq ptr @_ZTH20faiss_last_exception, null
  br i1 %.not.i18, label %_ZTW20faiss_last_exception.exit19, label %36

36:                                               ; preds = %35
  call void @_ZTH20faiss_last_exception()
  br label %_ZTW20faiss_last_exception.exit19

_ZTW20faiss_last_exception.exit19:                ; preds = %35, %36
  %37 = call noundef align 8 ptr @llvm.threadlocal.address.p0(ptr align 8 @faiss_last_exception)
  call void @llvm.lifetime.start.p0(i64 8, ptr nonnull %5) #20
  %38 = load ptr, ptr %9, align 8, !tbaa !37
  store ptr null, ptr %9, align 8, !tbaa !37
  %39 = load ptr, ptr %37, align 8, !tbaa !37
  store ptr %39, ptr %5, align 8, !tbaa !37
  store ptr %38, ptr %37, align 8, !tbaa !37
  %.not.i.i20 = icmp eq ptr %39, null
  br i1 %.not.i.i20, label %_ZNSt15__exception_ptr13exception_ptraSEOS0_.exit21.thread, label %_ZNSt15__exception_ptr13exception_ptraSEOS0_.exit21

_ZNSt15__exception_ptr13exception_ptraSEOS0_.exit21.thread: ; preds = %_ZTW20faiss_last_exception.exit19
  call void @llvm.lifetime.end.p0(i64 8, ptr nonnull %5) #20
  br label %_ZNSt15__exception_ptr13exception_ptrD2Ev.exit23

_ZNSt15__exception_ptr13exception_ptraSEOS0_.exit21: ; preds = %_ZTW20faiss_last_exception.exit19
  call void @_ZNSt15__exception_ptr13exception_ptr10_M_releaseEv(ptr noundef nonnull align 8 dereferenceable(8) %5) #20
  %.pr31 = load ptr, ptr %9, align 8, !tbaa !37
  call void @llvm.lifetime.end.p0(i64 8, ptr nonnull %5) #20
  %.not.i22 = icmp eq ptr %.pr31, null
  br i1 %.not.i22, label %_ZNSt15__exception_ptr13exception_ptrD2Ev.exit23, label %40

40:                                               ; preds = %_ZNSt15__exception_ptr13exception_ptraSEOS0_.exit21
  call void @_ZNSt15__exception_ptr13exception_ptr10_M_releaseEv(ptr noundef nonnull align 8 dereferenceable(8) %9) #20
  br label %_ZNSt15__exception_ptr13exception_ptrD2Ev.exit23

_ZNSt15__exception_ptr13exception_ptrD2Ev.exit23: ; preds = %_ZNSt15__exception_ptr13exception_ptraSEOS0_.exit21.thread, %_ZNSt15__exception_ptr13exception_ptraSEOS0_.exit21, %40
  call void @_ZNSt9exceptionD1Ev(ptr noundef nonnull align 8 dereferenceable(8) %10) #20
  call void @llvm.lifetime.end.p0(i64 8, ptr nonnull %9) #20
  call void @__cxa_end_catch()
  br label %52

41:                                               ; preds = %31
  call void @llvm.lifetime.start.p0(i64 8, ptr nonnull %7) #20
  invoke void @_ZNSt13runtime_errorC1EPKc(ptr noundef nonnull align 8 dereferenceable(16) %8, ptr noundef nonnull @.str)
          to label %42 unwind label %48

42:                                               ; preds = %41
  call void @_ZSt18make_exception_ptrISt13runtime_errorENSt15__exception_ptr13exception_ptrET_(ptr dead_on_unwind nonnull writable sret(%"class.std::__exception_ptr::exception_ptr") align 8 %7, ptr noundef nonnull %8) #20
  %.not.i24 = icmp eq ptr @_ZTH20faiss_last_exception, null
  br i1 %.not.i24, label %_ZTW20faiss_last_exception.exit25, label %43

43:                                               ; preds = %42
  call void @_ZTH20faiss_last_exception()
  br label %_ZTW20faiss_last_exception.exit25

_ZTW20faiss_last_exception.exit25:                ; preds = %42, %43
  %44 = call noundef align 8 ptr @llvm.threadlocal.address.p0(ptr align 8 @faiss_last_exception)
  call void @llvm.lifetime.start.p0(i64 8, ptr nonnull %4) #20
  %45 = load ptr, ptr %7, align 8, !tbaa !37
  store ptr null, ptr %7, align 8, !tbaa !37
  %46 = load ptr, ptr %44, align 8, !tbaa !37
  store ptr %46, ptr %4, align 8, !tbaa !37
  store ptr %45, ptr %44, align 8, !tbaa !37
  %.not.i.i26 = icmp eq ptr %46, null
  br i1 %.not.i.i26, label %_ZNSt15__exception_ptr13exception_ptraSEOS0_.exit27.thread, label %_ZNSt15__exception_ptr13exception_ptraSEOS0_.exit27

_ZNSt15__exception_ptr13exception_ptraSEOS0_.exit27.thread: ; preds = %_ZTW20faiss_last_exception.exit25
  call void @llvm.lifetime.end.p0(i64 8, ptr nonnull %4) #20
  br label %_ZNSt15__exception_ptr13exception_ptrD2Ev.exit29

_ZNSt15__exception_ptr13exception_ptraSEOS0_.exit27: ; preds = %_ZTW20faiss_last_exception.exit25
  call void @_ZNSt15__exception_ptr13exception_ptr10_M_releaseEv(ptr noundef nonnull align 8 dereferenceable(8) %4) #20
  %.pr33 = load ptr, ptr %7, align 8, !tbaa !37
  call void @llvm.lifetime.end.p0(i64 8, ptr nonnull %4) #20
  %.not.i28 = icmp eq ptr %.pr33, null
  br i1 %.not.i28, label %_ZNSt15__exception_ptr13exception_ptrD2Ev.exit29, label %47

47:                                               ; preds = %_ZNSt15__exception_ptr13exception_ptraSEOS0_.exit27
  call void @_ZNSt15__exception_ptr13exception_ptr10_M_releaseEv(ptr noundef nonnull align 8 dereferenceable(8) %7) #20
  br label %_ZNSt15__exception_ptr13exception_ptrD2Ev.exit29

_ZNSt15__exception_ptr13exception_ptrD2Ev.exit29: ; preds = %_ZNSt15__exception_ptr13exception_ptraSEOS0_.exit27.thread, %_ZNSt15__exception_ptr13exception_ptraSEOS0_.exit27, %47
  call void @_ZNSt13runtime_errorD1Ev(ptr noundef nonnull align 8 dereferenceable(16) %8) #20
  call void @llvm.lifetime.end.p0(i64 8, ptr nonnull %7) #20
  call void @__cxa_end_catch()
  br label %52

48:                                               ; preds = %41
  %49 = landingpad { ptr, i32 }
          cleanup
  call void @llvm.lifetime.end.p0(i64 8, ptr nonnull %7) #20
  invoke void @__cxa_end_catch()
          to label %53 unwind label %54

50:                                               ; preds = %23
  %51 = landingpad { ptr, i32 }
          cleanup
  call void @llvm.lifetime.end.p0(i64 8, ptr nonnull %11) #20
  invoke void @__cxa_end_catch()
          to label %53 unwind label %54

52:                                               ; preds = %15, %_ZNSt15__exception_ptr13exception_ptrD2Ev.exit29, %_ZNSt15__exception_ptr13exception_ptrD2Ev.exit23, %_ZNSt15__exception_ptr13exception_ptrD2Ev.exit
  %.0 = phi i32 [ 0, %15 ], [ -2, %_ZNSt15__exception_ptr13exception_ptrD2Ev.exit ], [ -4, %_ZNSt15__exception_ptr13exception_ptrD2Ev.exit23 ], [ -1, %_ZNSt15__exception_ptr13exception_ptrD2Ev.exit29 ]
  ret i32 %.0

53:                                               ; preds = %50, %48
  %.pn15 = phi { ptr, i32 } [ %49, %48 ], [ %51, %50 ]
  resume { ptr, i32 } %.pn15

54:                                               ; preds = %50, %48
  %55 = landingpad { ptr, i32 }
          catch ptr null
  %56 = extractvalue { ptr, i32 } %55, 0
  call void @__clang_call_terminate(ptr %56) #23
  unreachable
}